target datalayout = "e-m:e-p270:32:32-p271:32:32-p272:64:64-i64:64-i128:128-f80:128-n8:16:32:64-S128"
target triple = "x86_64-pc-linux-gnu"

%"class.llvm::SMLoc" = type { ptr }
%"class.llvm::MCExpr" = type <{ i8, i32, [3 x i8], %"class.llvm::SMLoc" }>
%"class.llvm::MCBinaryExpr" = type { %"class.llvm::MCExpr", ptr, ptr }
%"class.llvm::MCSymbolRefExpr" = type { %"class.llvm::MCExpr", ptr }
%"class.llvm::MCUnaryExpr" = type { %"class.llvm::MCExpr", ptr }

; Function Attrs: mustprogress nounwind uwtable
define linkonce_odr hidden noundef nonnull align 8 dereferenceable(24) ptr @_ZN4llvm16cast_convert_valINS_11MCUnaryExprEKNS_6MCExprES3_E4doitERS3_(ptr noundef nonnull align 8 dereferenceable(16) %0) #0 comdat align 2 {
  %2 = alloca ptr, align 8
  store ptr %0, ptr %2, align 8
  %3 = load ptr, ptr %2, align 8
  ret ptr %3
}

; Function Attrs: mustprogress nounwind uwtable
define linkonce_odr hidden noundef nonnull align 8 dereferenceable(24) ptr @_ZN4llvm16cast_convert_valINS_15MCSymbolRefExprEKNS_6MCExprES3_E4doitERS3_(ptr noundef nonnull align 8 dereferenceable(16) %0) #0 comdat align 2 {
  %2 = alloca ptr, align 8
  store ptr %0, ptr %2, align 8
  %3 = load ptr, ptr %2, align 8
  ret ptr %3
}

; Function Attrs: mustprogress nounwind uwtable
define linkonce_odr hidden noundef nonnull align 8 dereferenceable(32) ptr @_ZN4llvm16cast_convert_valINS_12MCBinaryExprEKNS_6MCExprES3_E4doitERS3_(ptr noundef nonnull align 8 dereferenceable(16) %0) #0 comdat align 2 {
  %2 = alloca ptr, align 8
  store ptr %0, ptr %2, align 8
  %3 = load ptr, ptr %2, align 8
  ret ptr %3
}

; Function Attrs: mustprogress nounwind uwtable
define linkonce_odr hidden noundef nonnull align 8 dereferenceable(24) ptr @_ZN4llvm16cast_convert_valINS_12MCTargetExprEKNS_6MCExprES3_E4doitERS3_(ptr noundef nonnull align 8 dereferenceable(16) %0) #0 comdat align 2 {
  %2 = alloca ptr, align 8
  store ptr %0, ptr %2, align 8
  %3 = load ptr, ptr %2, align 8
  %4 = icmp eq ptr %3, null
  br i1 %4, label %7, label %5

5:                                                ; preds = %1
  %6 = getelementptr inbounds i8, ptr %3, i64 -8
  br label %8

7:                                                ; preds = %1
  br label %8

8:                                                ; preds = %7, %5
  %9 = phi ptr [ %6, %5 ], [ null, %7 ]
  ret ptr %9
}

; Function Attrs: mustprogress nounwind uwtable
define linkonce_odr hidden noundef nonnull align 8 dereferenceable(24) ptr @_ZN4llvm8CastInfoINS_11MCUnaryExprEKNS_6MCExprEvE6doCastERS3_(ptr noundef nonnull align 8 dereferenceable(16) %0) #0 comdat align 2 {
  %2 = alloca ptr, align 8
  store ptr %0, ptr %2, align 8
  %3 = load ptr, ptr %2, align 8
  %4 = call noundef nonnull align 8 dereferenceable(24) ptr @_ZN4llvm16cast_convert_valINS_11MCUnaryExprEKNS_6MCExprES3_E4doitERS3_(ptr noundef nonnull align 8 dereferenceable(16) %3)
  ret ptr %4
}

; Function Attrs: mustprogress nounwind uwtable
define linkonce_odr hidden noundef nonnull align 8 dereferenceable(24) ptr @_ZN4llvm8CastInfoINS_15MCSymbolRefExprEKNS_6MCExprEvE6doCastERS3_(ptr noundef nonnull align 8 dereferenceable(16) %0) #0 comdat align 2 {
  %2 = alloca ptr, align 8
  store ptr %0, ptr %2, align 8
  %3 = load ptr, ptr %2, align 8
  %4 = call noundef nonnull align 8 dereferenceable(24) ptr @_ZN4llvm16cast_convert_valINS_15MCSymbolRefExprEKNS_6MCExprES3_E4doitERS3_(ptr noundef nonnull align 8 dereferenceable(16) %3)
  ret ptr %4
}

; Function Attrs: mustprogress nounwind uwtable
define linkonce_odr hidden noundef nonnull align 8 dereferenceable(32) ptr @_ZN4llvm8CastInfoINS_12MCBinaryExprEKNS_6MCExprEvE6doCastERS3_(ptr noundef nonnull align 8 dereferenceable(16) %0) #0 comdat align 2 {
  %2 = alloca ptr, align 8
  store ptr %0, ptr %2, align 8
  %3 = load ptr, ptr %2, align 8
  %4 = call noundef nonnull align 8 dereferenceable(32) ptr @_ZN4llvm16cast_convert_valINS_12MCBinaryExprEKNS_6MCExprES3_E4doitERS3_(ptr noundef nonnull align 8 dereferenceable(16) %3)
  ret ptr %4
}

; Function Attrs: mustprogress nounwind uwtable
define linkonce_odr hidden noundef nonnull align 8 dereferenceable(24) ptr @_ZN4llvm8CastInfoINS_12MCTargetExprEKNS_6MCExprEvE6doCastERS3_(ptr noundef nonnull align 8 dereferenceable(16) %0) #0 comdat align 2 {
  %2 = alloca ptr, align 8
  store ptr %0, ptr %2, align 8
  %3 = load ptr, ptr %2, align 8
  %4 = call noundef nonnull align 8 dereferenceable(24) ptr @_ZN4llvm16cast_convert_valINS_12MCTargetExprEKNS_6MCExprES3_E4doitERS3_(ptr noundef nonnull align 8 dereferenceable(16) %3)
  ret ptr %4
}

; Function Attrs: mustprogress nounwind uwtable
define linkonce_odr hidden noundef ptr @_ZNK4llvm11MCUnaryExpr10getSubExprEv(ptr noundef nonnull align 8 dereferenceable(24) %0) #0 comdat align 2 {
  %2 = alloca ptr, align 8
  store ptr %0, ptr %2, align 8
  %3 = load ptr, ptr %2, align 8
  %4 = getelementptr inbounds nuw %"class.llvm::MCUnaryExpr", ptr %3, i32 0, i32 1
  %5 = load ptr, ptr %4, align 8
  ret ptr %5
}

; Function Attrs: mustprogress nounwind uwtable
define linkonce_odr hidden noundef nonnull align 8 dereferenceable(24) ptr @_ZN4llvm4castINS_11MCUnaryExprENS_6MCExprEEEDcRKT0_(ptr noundef nonnull align 8 dereferenceable(16) %0) #0 comdat {
  %2 = alloca ptr, align 8
  store ptr %0, ptr %2, align 8
  %3 = load ptr, ptr %2, align 8
  %4 = call noundef nonnull align 8 dereferenceable(24) ptr @_ZN4llvm8CastInfoINS_11MCUnaryExprEKNS_6MCExprEvE6doCastERS3_(ptr noundef nonnull align 8 dereferenceable(16) %3)
  ret ptr %4
}

; Function Attrs: mustprogress nounwind uwtable
define linkonce_odr hidden noundef nonnull align 8 dereferenceable(32) ptr @_ZNK4llvm15MCSymbolRefExpr9getSymbolEv(ptr noundef nonnull align 8 dereferenceable(24) %0) #0 comdat align 2 {
  %2 = alloca ptr, align 8
  store ptr %0, ptr %2, align 8
  %3 = load ptr, ptr %2, align 8
  %4 = getelementptr inbounds nuw %"class.llvm::MCSymbolRefExpr", ptr %3, i32 0, i32 1
  %5 = load ptr, ptr %4, align 8
  ret ptr %5
}

; Function Attrs: mustprogress nounwind uwtable
define linkonce_odr hidden noundef nonnull align 8 dereferenceable(24) ptr @_ZN4llvm4castINS_15MCSymbolRefExprENS_6MCExprEEEDcRKT0_(ptr noundef nonnull align 8 dereferenceable(16) %0) #0 comdat {
  %2 = alloca ptr, align 8
  store ptr %0, ptr %2, align 8
  %3 = load ptr, ptr %2, align 8
  %4 = call noundef nonnull align 8 dereferenceable(24) ptr @_ZN4llvm8CastInfoINS_15MCSymbolRefExprEKNS_6MCExprEvE6doCastERS3_(ptr noundef nonnull align 8 dereferenceable(16) %3)
  ret ptr %4
}

; Function Attrs: mustprogress nounwind uwtable
define linkonce_odr hidden noundef ptr @_ZNK4llvm12MCBinaryExpr6getRHSEv(ptr noundef nonnull align 8 dereferenceable(32) %0) #0 comdat align 2 {
  %2 = alloca ptr, align 8
  store ptr %0, ptr %2, align 8
  %3 = load ptr, ptr %2, align 8
  %4 = getelementptr inbounds nuw %"class.llvm::MCBinaryExpr", ptr %3, i32 0, i32 2
  %5 = load ptr, ptr %4, align 8
  ret ptr %5
}

; Function Attrs: mustprogress nounwind uwtable
define linkonce_odr hidden noundef ptr @_ZNK4llvm12MCBinaryExpr6getLHSEv(ptr noundef nonnull align 8 dereferenceable(32) %0) #0 comdat align 2 {
  %2 = alloca ptr, align 8
  store ptr %0, ptr %2, align 8
  %3 = load ptr, ptr %2, align 8
  %4 = getelementptr inbounds nuw %"class.llvm::MCBinaryExpr", ptr %3, i32 0, i32 1
  %5 = load ptr, ptr %4, align 8
  ret ptr %5
}

; Function Attrs: mustprogress nounwind uwtable
define linkonce_odr hidden noundef nonnull align 8 dereferenceable(32) ptr @_ZN4llvm4castINS_12MCBinaryExprENS_6MCExprEEEDcRKT0_(ptr noundef nonnull align 8 dereferenceable(16) %0) #0 comdat {
  %2 = alloca ptr, align 8
  store ptr %0, ptr %2, align 8
  %3 = load ptr, ptr %2, align 8
  %4 = call noundef nonnull align 8 dereferenceable(32) ptr @_ZN4llvm8CastInfoINS_12MCBinaryExprEKNS_6MCExprEvE6doCastERS3_(ptr noundef nonnull align 8 dereferenceable(16) %3)
  ret ptr %4
}

; Function Attrs: mustprogress nounwind uwtable
define linkonce_odr hidden noundef nonnull align 8 dereferenceable(24) ptr @_ZN4llvm4castINS_12MCTargetExprENS_6MCExprEEEDcRKT0_(ptr noundef nonnull align 8 dereferenceable(16) %0) #0 comdat {
  %2 = alloca ptr, align 8
  store ptr %0, ptr %2, align 8
  %3 = load ptr, ptr %2, align 8
  %4 = call noundef nonnull align 8 dereferenceable(24) ptr @_ZN4llvm8CastInfoINS_12MCTargetExprEKNS_6MCExprEvE6doCastERS3_(ptr noundef nonnull align 8 dereferenceable(16) %3)
  ret ptr %4
}

; Function Attrs: mustprogress nounwind uwtable
define linkonce_odr hidden noundef zeroext i8 @_ZNK4llvm6MCExpr7getKindEv(ptr noundef nonnull align 8 dereferenceable(16) %0) #0 comdat align 2 {
  %2 = alloca ptr, align 8
  store ptr %0, ptr %2, align 8
  %3 = load ptr, ptr %2, align 8
  %4 = getelementptr inbounds nuw %"class.llvm::MCExpr", ptr %3, i32 0, i32 0
  %5 = load i8, ptr %4, align 8
  ret i8 %5
}

; Function Attrs: mustprogress nounwind uwtable
define dso_local void @_ZN4llvm10MCStreamer13visitUsedExprERKNS_6MCExprE(ptr noundef nonnull align 8 dereferenceable(288) %0, ptr noundef nonnull align 8 dereferenceable(16) %1) #0 align 2 {
  %3 = alloca ptr, align 8
  %4 = alloca ptr, align 8
  %5 = alloca ptr, align 8
  store ptr %0, ptr %3, align 8
  store ptr %1, ptr %4, align 8
  %6 = load ptr, ptr %3, align 8
  %7 = load ptr, ptr %4, align 8
  %8 = call noundef zeroext i8 @_ZNK4llvm6MCExpr7getKindEv(ptr noundef nonnull align 8 dereferenceable(16) %7)
  %9 = zext i8 %8 to i32
  switch i32 %9, label %35 [
    i32 4, label %10
    i32 1, label %16
    i32 0, label %17
    i32 2, label %24
    i32 3, label %31
  ]

10:                                               ; preds = %2
  %11 = load ptr, ptr %4, align 8
  %12 = call noundef nonnull align 8 dereferenceable(24) ptr @_ZN4llvm4castINS_12MCTargetExprENS_6MCExprEEEDcRKT0_(ptr noundef nonnull align 8 dereferenceable(16) %11)
  %13 = load ptr, ptr %12, align 8
  %14 = getelementptr inbounds ptr, ptr %13, i64 7
  %15 = load ptr, ptr %14, align 8
  call void %15(ptr noundef nonnull align 8 dereferenceable(24) %12, ptr noundef nonnull align 8 dereferenceable(288) %6)
  br label %35

16:                                               ; preds = %2
  br label %35

17:                                               ; preds = %2
  %18 = load ptr, ptr %4, align 8
  %19 = call noundef nonnull align 8 dereferenceable(32) ptr @_ZN4llvm4castINS_12MCBinaryExprENS_6MCExprEEEDcRKT0_(ptr noundef nonnull align 8 dereferenceable(16) %18)
  store ptr %19, ptr %5, align 8
  %20 = load ptr, ptr %5, align 8
  %21 = call noundef ptr @_ZNK4llvm12MCBinaryExpr6getLHSEv(ptr noundef nonnull align 8 dereferenceable(32) %20)
  call void @_ZN4llvm10MCStreamer13visitUsedExprERKNS_6MCExprE(ptr noundef nonnull align 8 dereferenceable(288) %6, ptr noundef nonnull align 8 dereferenceable(16) %21)
  %22 = load ptr, ptr %5, align 8
  %23 = call noundef ptr @_ZNK4llvm12MCBinaryExpr6getRHSEv(ptr noundef nonnull align 8 dereferenceable(32) %22)
  call void @_ZN4llvm10MCStreamer13visitUsedExprERKNS_6MCExprE(ptr noundef nonnull align 8 dereferenceable(288) %6, ptr noundef nonnull align 8 dereferenceable(16) %23)
  br label %35

24:                                               ; preds = %2
  %25 = load ptr, ptr %4, align 8
  %26 = call noundef nonnull align 8 dereferenceable(24) ptr @_ZN4llvm4castINS_15MCSymbolRefExprENS_6MCExprEEEDcRKT0_(ptr noundef nonnull align 8 dereferenceable(16) %25)
  %27 = call noundef nonnull align 8 dereferenceable(32) ptr @_ZNK4llvm15MCSymbolRefExpr9getSymbolEv(ptr noundef nonnull align 8 dereferenceable(24) %26)
  %28 = load ptr, ptr %6, align 8
  %29 = getelementptr inbounds ptr, ptr %28, i64 8
  %30 = load ptr, ptr %29, align 8
  call void %30(ptr noundef nonnull align 8 dereferenceable(288) %6, ptr noundef nonnull align 8 dereferenceable(32) %27)
  br label %35

31:                                               ; preds = %2
  %32 = load ptr, ptr %4, align 8
  %33 = call noundef nonnull align 8 dereferenceable(24) ptr @_ZN4llvm4castINS_11MCUnaryExprENS_6MCExprEEEDcRKT0_(ptr noundef nonnull align 8 dereferenceable(16) %32)
  %34 = call noundef ptr @_ZNK4llvm11MCUnaryExpr10getSubExprEv(ptr noundef nonnull align 8 dereferenceable(24) %33)
  call void @_ZN4llvm10MCStreamer13visitUsedExprERKNS_6MCExprE(ptr noundef nonnull align 8 dereferenceable(288) %6, ptr noundef nonnull align 8 dereferenceable(16) %34)
  br label %35

35:                                               ; preds = %31, %24, %17, %16, %10, %2
  ret void
}