; Function Attrs: mustprogress nounwind uwtable
define dso_local void @_ZN4llvm10MCStreamer13visitUsedExprERKNS_6MCExprE(ptr noundef nonnull align 8 dereferenceable(288) %0, ptr noundef nonnull align 8 dereferenceable(16) %1) local_unnamed_addr #0 align 2 {
  br label %tailrecurse

tailrecurse:                                      ; preds = %tailrecurse.backedge, %2
  %.tr8 = phi ptr [ %1, %2 ], [ %.tr8.be, %tailrecurse.backedge ]
  %3 = load i8, ptr %.tr8, align 8
  switch i8 %3, label %.loopexit [
    i8 4, label %4
    i8 3, label %tailrecurse.backedge
    i8 0, label %9
    i8 2, label %13
  ]

4:                                                ; preds = %tailrecurse
  %5 = getelementptr inbounds i8, ptr %.tr8, i64 -8
  %6 = load ptr, ptr %5, align 8
  %7 = getelementptr inbounds i8, ptr %6, i64 56
  %8 = load ptr, ptr %7, align 8
  tail call void %8(ptr noundef nonnull align 8 dereferenceable(24) %5, ptr noundef nonnull align 8 dereferenceable(288) %0) #23
  br label %.loopexit

9:                                                ; preds = %tailrecurse
  %10 = getelementptr inbounds nuw i8, ptr %.tr8, i64 16
  %11 = load ptr, ptr %10, align 8
  tail call void @_ZN4llvm10MCStreamer13visitUsedExprERKNS_6MCExprE(ptr noundef nonnull align 8 dereferenceable(288) %0, ptr noundef nonnull align 8 dereferenceable(16) %11)
  br label %tailrecurse.backedge

tailrecurse.backedge:                             ; preds = %tailrecurse, %9
  %.sink = phi i64 [ 24, %9 ], [ 16, %tailrecurse ]
  %12 = getelementptr inbounds nuw i8, ptr %.tr8, i64 %.sink
  %.tr8.be = load ptr, ptr %12, align 8
  br label %tailrecurse

13:                                               ; preds = %tailrecurse
  %14 = getelementptr inbounds nuw i8, ptr %.tr8, i64 16
  %15 = load ptr, ptr %14, align 8
  %16 = load ptr, ptr %0, align 8
  %17 = getelementptr inbounds i8, ptr %16, i64 64
  %18 = load ptr, ptr %17, align 8
  tail call void %18(ptr noundef nonnull align 8 dereferenceable(288) %0, ptr noundef nonnull align 8 dereferenceable(32) %15) #23
  br label %.loopexit

.loopexit:                                        ; preds = %tailrecurse, %13, %4
  ret void
}